target datalayout = "e-m:e-p270:32:32-p271:32:32-p272:64:64-i64:64-i128:128-f80:128-n8:16:32:64-S128"
target triple = "x86_64-pc-linux-gnu"

%struct.PROV_XOR_CTX = type { ptr }
%struct.key2any_ctx_st = type { ptr, i32, i32, ptr, ptr, ptr }

@.str.2 = private unnamed_addr constant [31 x i8] c"../openssl/test/tls-provider.c\00", align 1
@__func__.p8info_to_encp8 = private unnamed_addr constant [16 x i8] c"p8info_to_encp8\00", align 1

; Function Attrs: nounwind uwtable
define internal ptr @p8info_to_encp8(ptr noundef %0, ptr noundef %1) #0 {
  %3 = alloca ptr, align 8
  %4 = alloca ptr, align 8
  %5 = alloca ptr, align 8
  %6 = alloca ptr, align 8
  %7 = alloca [1024 x i8], align 16
  %8 = alloca i64, align 8
  %9 = alloca ptr, align 8
  %10 = alloca i32, align 4
  store ptr %0, ptr %4, align 8, !tbaa !89
  store ptr %1, ptr %5, align 8, !tbaa !71
  call void @llvm.lifetime.start.p0(i64 8, ptr %6) #8
  store ptr null, ptr %6, align 8, !tbaa !99
  call void @llvm.lifetime.start.p0(i64 1024, ptr %7) #8
  call void @llvm.lifetime.start.p0(i64 8, ptr %8) #8
  store i64 0, ptr %8, align 8, !tbaa !35
  call void @llvm.lifetime.start.p0(i64 8, ptr %9) #8
  %11 = load ptr, ptr %5, align 8, !tbaa !71
  %12 = getelementptr inbounds nuw %struct.key2any_ctx_st, ptr %11, i32 0, i32 0
  %13 = load ptr, ptr %12, align 8, !tbaa !73
  %14 = getelementptr inbounds nuw %struct.PROV_XOR_CTX, ptr %13, i32 0, i32 0
  %15 = load ptr, ptr %14, align 8, !tbaa !25
  store ptr %15, ptr %9, align 8, !tbaa !14
  %16 = load ptr, ptr %5, align 8, !tbaa !71
  %17 = getelementptr inbounds nuw %struct.key2any_ctx_st, ptr %16, i32 0, i32 3
  %18 = load ptr, ptr %17, align 8, !tbaa !77
  %19 = icmp eq ptr %18, null
  br i1 %19, label %25, label %20

20:                                               ; preds = %2
  %21 = load ptr, ptr %5, align 8, !tbaa !71
  %22 = getelementptr inbounds nuw %struct.key2any_ctx_st, ptr %21, i32 0, i32 4
  %23 = load ptr, ptr %22, align 8, !tbaa !87
  %24 = icmp eq ptr %23, null
  br i1 %24, label %25, label %26

25:                                               ; preds = %20, %2
  store ptr null, ptr %3, align 8
  store i32 1, ptr %10, align 4
  br label %50

26:                                               ; preds = %20
  %27 = load ptr, ptr %5, align 8, !tbaa !71
  %28 = getelementptr inbounds nuw %struct.key2any_ctx_st, ptr %27, i32 0, i32 4
  %29 = load ptr, ptr %28, align 8, !tbaa !87
  %30 = getelementptr inbounds [1024 x i8], ptr %7, i64 0, i64 0
  %31 = load ptr, ptr %5, align 8, !tbaa !71
  %32 = getelementptr inbounds nuw %struct.key2any_ctx_st, ptr %31, i32 0, i32 5
  %33 = load ptr, ptr %32, align 8, !tbaa !88
  %34 = call i32 %29(ptr noundef %30, i64 noundef 1024, ptr noundef %8, ptr noundef null, ptr noundef %33)
  %35 = icmp ne i32 %34, 0
  br i1 %35, label %37, label %36

36:                                               ; preds = %26
  call void @ERR_new()
  call void @ERR_set_debug(ptr noundef @.str.2, i32 noundef 1386, ptr noundef @__func__.p8info_to_encp8)
  call void (i32, i32, ptr, ...) @ERR_set_error(i32 noundef 128, i32 noundef 159, ptr noundef null)
  store ptr null, ptr %3, align 8
  store i32 1, ptr %10, align 4
  br label %50

37:                                               ; preds = %26
  %38 = load ptr, ptr %5, align 8, !tbaa !71
  %39 = getelementptr inbounds nuw %struct.key2any_ctx_st, ptr %38, i32 0, i32 3
  %40 = load ptr, ptr %39, align 8, !tbaa !77
  %41 = getelementptr inbounds [1024 x i8], ptr %7, i64 0, i64 0
  %42 = load i64, ptr %8, align 8, !tbaa !35
  %43 = trunc i64 %42 to i32
  %44 = load ptr, ptr %4, align 8, !tbaa !89
  %45 = load ptr, ptr %9, align 8, !tbaa !14
  %46 = call ptr @PKCS8_encrypt_ex(i32 noundef -1, ptr noundef %40, ptr noundef %41, i32 noundef %43, ptr noundef null, i32 noundef 0, i32 noundef 0, ptr noundef %44, ptr noundef %45, ptr noundef null)
  store ptr %46, ptr %6, align 8, !tbaa !99
  %47 = getelementptr inbounds [1024 x i8], ptr %7, i64 0, i64 0
  %48 = load i64, ptr %8, align 8, !tbaa !35
  call void @OPENSSL_cleanse(ptr noundef %47, i64 noundef %48)
  %49 = load ptr, ptr %6, align 8, !tbaa !99
  store ptr %49, ptr %3, align 8
  store i32 1, ptr %10, align 4
  br label %50

50:                                               ; preds = %37, %36, %25
  call void @llvm.lifetime.end.p0(i64 8, ptr %9) #8
  call void @llvm.lifetime.end.p0(i64 8, ptr %8) #8
  call void @llvm.lifetime.end.p0(i64 1024, ptr %7) #8
  call void @llvm.lifetime.end.p0(i64 8, ptr %6) #8
  %51 = load ptr, ptr %3, align 8
  ret ptr %51
}

; Function Attrs: nounwind uwtable
define internal void @free_asn1_data(i32 noundef %0, ptr noundef %1) #0 {
  %3 = alloca i32, align 4
  %4 = alloca ptr, align 8
  store i32 %0, ptr %3, align 4, !tbaa !27
  store ptr %1, ptr %4, align 8, !tbaa !13
  %5 = load i32, ptr %3, align 4, !tbaa !27
  switch i32 %5, label %10 [
    i32 6, label %6
    i32 16, label %8
  ]

6:                                                ; preds = %2
  %7 = load ptr, ptr %4, align 8, !tbaa !13
  call void @ASN1_OBJECT_free(ptr noundef %7)
  br label %10

8:                                                ; preds = %2
  %9 = load ptr, ptr %4, align 8, !tbaa !13
  call void @ASN1_STRING_free(ptr noundef %9)
  br label %10

10:                                               ; preds = %2, %8, %6
  ret void
}

; Function Attrs: nounwind uwtable
define internal ptr @key_to_encp8(ptr noundef %0, i32 noundef %1, ptr noundef %2, i32 noundef %3, ptr noundef %4, ptr noundef %5) #0 {
  %7 = alloca ptr, align 8
  %8 = alloca i32, align 4
  %9 = alloca ptr, align 8
  %10 = alloca i32, align 4
  %11 = alloca ptr, align 8
  %12 = alloca ptr, align 8
  %13 = alloca ptr, align 8
  %14 = alloca ptr, align 8
  store ptr %0, ptr %7, align 8, !tbaa !13
  store i32 %1, ptr %8, align 4, !tbaa !27
  store ptr %2, ptr %9, align 8, !tbaa !13
  store i32 %3, ptr %10, align 4, !tbaa !27
  store ptr %4, ptr %11, align 8, !tbaa !13
  store ptr %5, ptr %12, align 8, !tbaa !71
  call void @llvm.lifetime.start.p0(i64 8, ptr %13) #8
  %15 = load ptr, ptr %7, align 8, !tbaa !13
  %16 = load i32, ptr %8, align 4, !tbaa !27
  %17 = load ptr, ptr %9, align 8, !tbaa !13
  %18 = load i32, ptr %10, align 4, !tbaa !27
  %19 = load ptr, ptr %11, align 8, !tbaa !13
  %20 = call ptr @key_to_p8info(ptr noundef %15, i32 noundef %16, ptr noundef %17, i32 noundef %18, ptr noundef %19)
  store ptr %20, ptr %13, align 8, !tbaa !89
  call void @llvm.lifetime.start.p0(i64 8, ptr %14) #8
  store ptr null, ptr %14, align 8, !tbaa !99
  %21 = load ptr, ptr %13, align 8, !tbaa !89
  %22 = icmp eq ptr %21, null
  br i1 %22, label %23, label %26

23:                                               ; preds = %6
  %24 = load i32, ptr %10, align 4, !tbaa !27
  %25 = load ptr, ptr %9, align 8, !tbaa !13
  call void @free_asn1_data(i32 noundef %24, ptr noundef %25)
  br label %31

26:                                               ; preds = %6
  %27 = load ptr, ptr %13, align 8, !tbaa !89
  %28 = load ptr, ptr %12, align 8, !tbaa !71
  %29 = call ptr @p8info_to_encp8(ptr noundef %27, ptr noundef %28)
  store ptr %29, ptr %14, align 8, !tbaa !99
  %30 = load ptr, ptr %13, align 8, !tbaa !89
  call void @PKCS8_PRIV_KEY_INFO_free(ptr noundef %30)
  br label %31

31:                                               ; preds = %26, %23
  %32 = load ptr, ptr %14, align 8, !tbaa !99
  call void @llvm.lifetime.end.p0(i64 8, ptr %14) #8
  call void @llvm.lifetime.end.p0(i64 8, ptr %13) #8
  ret ptr %32
}