; Function Attrs: nounwind uwtable
define internal fastcc ptr @key_to_encp8(ptr noundef %0, i32 noundef %1, ptr noundef %2, i32 noundef %3, ptr noundef readonly captures(none) %4, ptr noundef readonly captures(none) %5) unnamed_addr #0 {
  %7 = alloca [1024 x i8], align 16
  %8 = alloca i64, align 8
  %9 = tail call fastcc ptr @key_to_p8info(ptr noundef %0, i32 noundef %1, ptr noundef %4)
  %10 = icmp eq ptr %9, null
  br i1 %10, label %11, label %14

11:                                               ; preds = %6
  switch i32 %3, label %free_asn1_data.exit [
    i32 6, label %12
    i32 16, label %13
  ]

12:                                               ; preds = %11
  tail call void @ASN1_OBJECT_free(ptr noundef %2) #16
  br label %free_asn1_data.exit

13:                                               ; preds = %11
  tail call void @ASN1_STRING_free(ptr noundef %2) #16
  br label %free_asn1_data.exit

14:                                               ; preds = %6
  call void @llvm.lifetime.start.p0(i64 1024, ptr nonnull %7) #16
  call void @llvm.lifetime.start.p0(i64 8, ptr nonnull %8) #16
  store i64 0, ptr %8, align 8, !tbaa !47
  %15 = load ptr, ptr %5, align 8, !tbaa !58
  %16 = load ptr, ptr %15, align 8, !tbaa !4
  %17 = getelementptr inbounds nuw i8, ptr %5, i64 16
  %18 = load ptr, ptr %17, align 8, !tbaa !62
  %19 = icmp eq ptr %18, null
  br i1 %19, label %p8info_to_encp8.exit, label %20

20:                                               ; preds = %14
  %21 = getelementptr inbounds nuw i8, ptr %5, i64 24
  %22 = load ptr, ptr %21, align 8, !tbaa !67
  %23 = icmp eq ptr %22, null
  br i1 %23, label %p8info_to_encp8.exit, label %24

24:                                               ; preds = %20
  %25 = getelementptr inbounds nuw i8, ptr %5, i64 32
  %26 = load ptr, ptr %25, align 8, !tbaa !68
  %27 = call i32 %22(ptr noundef nonnull %7, i64 noundef 1024, ptr noundef nonnull %8, ptr noundef null, ptr noundef %26) #16
  %.not.i = icmp eq i32 %27, 0
  br i1 %.not.i, label %28, label %29

28:                                               ; preds = %24
  call void @ERR_new() #16
  call void @ERR_set_debug(ptr noundef nonnull @.str.2, i32 noundef 1386, ptr noundef nonnull @__func__.p8info_to_encp8) #16
  call void (i32, i32, ptr, ...) @ERR_set_error(i32 noundef 128, i32 noundef 159, ptr noundef null) #16
  br label %p8info_to_encp8.exit

29:                                               ; preds = %24
  %30 = load ptr, ptr %17, align 8, !tbaa !62
  %31 = load i64, ptr %8, align 8, !tbaa !47
  %32 = trunc i64 %31 to i32
  %33 = call ptr @PKCS8_encrypt_ex(i32 noundef -1, ptr noundef %30, ptr noundef nonnull %7, i32 noundef %32, ptr noundef null, i32 noundef 0, i32 noundef 0, ptr noundef nonnull %9, ptr noundef %16, ptr noundef null) #16
  %34 = load i64, ptr %8, align 8, !tbaa !47
  call void @OPENSSL_cleanse(ptr noundef nonnull %7, i64 noundef %34) #16
  br label %p8info_to_encp8.exit

p8info_to_encp8.exit:                             ; preds = %14, %20, %28, %29
  %.0.i = phi ptr [ %33, %29 ], [ null, %28 ], [ null, %20 ], [ null, %14 ]
  call void @llvm.lifetime.end.p0(i64 8, ptr nonnull %8) #16
  call void @llvm.lifetime.end.p0(i64 1024, ptr nonnull %7) #16
  call void @PKCS8_PRIV_KEY_INFO_free(ptr noundef nonnull %9) #16
  br label %free_asn1_data.exit

free_asn1_data.exit:                              ; preds = %13, %12, %11, %p8info_to_encp8.exit
  %.0 = phi ptr [ %.0.i, %p8info_to_encp8.exit ], [ null, %11 ], [ null, %12 ], [ null, %13 ]
  ret ptr %.0
}